; Function Attrs: mustprogress nounwind uwtable
define void @_ZN7glslang8TProgramC2Ev(ptr noundef nonnull align 8 dereferenceable(497) initializes((0, 8)) %0) unnamed_addr #3 align 2 {
  store ptr getelementptr inbounds nuw inrange(-16, 16) (i8, ptr @_ZTVN7glslang8TProgramE, i64 16), ptr %0, align 8
  br label %2

2:                                                ; preds = %2, %1
  %.idx = phi i64 [ 16, %1 ], [ %.add, %2 ]
  %.ptr = getelementptr inbounds nuw i8, ptr %0, i64 %.idx
  %3 = getelementptr inbounds nuw i8, ptr %.ptr, i64 8
  store ptr %.ptr, ptr %3, align 8
  store ptr %.ptr, ptr %.ptr, align 8
  %4 = getelementptr inbounds nuw i8, ptr %.ptr, i64 16
  store i64 0, ptr %4, align 8
  %.add = add nuw nsw i64 %.idx, 24
  %5 = icmp eq i64 %.add, 352
  br i1 %5, label %6, label %2

6:                                                ; preds = %2
  %7 = getelementptr inbounds nuw i8, ptr %0, i64 488
  store ptr null, ptr %7, align 8
  %8 = getelementptr inbounds nuw i8, ptr %0, i64 496
  store i8 0, ptr %8, align 8
  %9 = tail call noalias noundef nonnull dereferenceable(96) ptr @_Znwm(i64 noundef 96) #26
  tail call void @_ZN7glslang14TPoolAllocatorC1Eii(ptr noundef nonnull align 8 dereferenceable(96) %9, i32 noundef 8192, i32 noundef 16) #24
  %10 = getelementptr inbounds nuw i8, ptr %0, i64 8
  store ptr %9, ptr %10, align 8
  %11 = tail call noalias noundef nonnull dereferenceable(96) ptr @_Znwm(i64 noundef 96) #26
  tail call void @_ZNSt7__cxx1112basic_stringIcSt11char_traitsIcESaIcEEC1Ev(ptr noundef nonnull align 8 dereferenceable(96) %11) #24
  %12 = getelementptr inbounds nuw i8, ptr %11, i64 32
  store i32 4, ptr %12, align 8
  %13 = getelementptr inbounds nuw i8, ptr %11, i64 40
  store ptr null, ptr %13, align 8
  %14 = getelementptr inbounds nuw i8, ptr %11, i64 48
  tail call void @_ZNSt7__cxx1112basic_stringIcSt11char_traitsIcESaIcEEC1Ev(ptr noundef nonnull align 8 dereferenceable(48) %14) #24
  %15 = getelementptr inbounds nuw i8, ptr %11, i64 80
  store i32 4, ptr %15, align 8
  %16 = getelementptr inbounds nuw i8, ptr %11, i64 88
  store ptr null, ptr %16, align 8
  %17 = getelementptr inbounds nuw i8, ptr %0, i64 480
  store ptr %11, ptr %17, align 8
  %18 = getelementptr inbounds nuw i8, ptr %0, i64 352
  tail call void @llvm.memset.p0.i64(ptr noundef nonnull align 8 dereferenceable(126) %18, i8 0, i64 126, i1 false)
  ret void
}